target datalayout = "e-m:e-p270:32:32-p271:32:32-p272:64:64-i64:64-i128:128-f80:128-n8:16:32:64-S128"
target triple = "x86_64-pc-linux-gnu"

%"class.boost::urls::authority_view" = type { ptr, %"struct.boost::urls::detail::url_impl" }
%"struct.boost::urls::detail::url_impl" = type <{ ptr, [8 x i64], [7 x i64], i64, i64, [16 x i8], i16, [2 x i8], i32, i16, i8, [5 x i8] }>

@_ZTVN5boost4urls14authority_viewE = unnamed_addr constant { [4 x ptr] } { [4 x ptr] [ptr null, ptr @_ZTIN5boost4urls14authority_viewE, ptr @_ZN5boost4urls14authority_viewD1Ev, ptr @_ZN5boost4urls14authority_viewD0Ev] }, align 8
@.str.2 = private unnamed_addr constant [1 x i8] zeroinitializer, align 1

; Function Attrs: mustprogress nounwind uwtable
define linkonce_odr hidden void @_ZN5boost4urls6detail8url_implC2ENS1_10parts_base4fromE(ptr noundef nonnull align 8 dereferenceable(171) %0, i8 noundef signext %1) unnamed_addr #2 comdat align 2 {
  %3 = alloca ptr, align 8
  %4 = alloca i8, align 1
  store ptr %0, ptr %3, align 8, !tbaa !7
  store i8 %1, ptr %4, align 1, !tbaa !16
  %5 = load ptr, ptr %3, align 8
  %6 = getelementptr inbounds nuw %"struct.boost::urls::detail::url_impl", ptr %5, i32 0, i32 0
  store ptr @.str.2, ptr %6, align 8, !tbaa !18
  %7 = getelementptr inbounds nuw %"struct.boost::urls::detail::url_impl", ptr %5, i32 0, i32 1
  %8 = getelementptr inbounds i64, ptr %7, i64 8
  br label %9

9:                                                ; preds = %9, %2
  %10 = phi ptr [ %7, %2 ], [ %11, %9 ]
  store i64 0, ptr %10, align 8, !tbaa !24
  %11 = getelementptr inbounds i64, ptr %10, i64 1
  %12 = icmp eq ptr %11, %8
  br i1 %12, label %13, label %9

13:                                               ; preds = %9
  %14 = getelementptr inbounds nuw %"struct.boost::urls::detail::url_impl", ptr %5, i32 0, i32 2
  %15 = getelementptr inbounds i64, ptr %14, i64 7
  br label %16

16:                                               ; preds = %16, %13
  %17 = phi ptr [ %14, %13 ], [ %18, %16 ]
  store i64 0, ptr %17, align 8, !tbaa !24
  %18 = getelementptr inbounds i64, ptr %17, i64 1
  %19 = icmp eq ptr %18, %15
  br i1 %19, label %20, label %16

20:                                               ; preds = %16
  %21 = getelementptr inbounds nuw %"struct.boost::urls::detail::url_impl", ptr %5, i32 0, i32 3
  store i64 0, ptr %21, align 8, !tbaa !25
  %22 = getelementptr inbounds nuw %"struct.boost::urls::detail::url_impl", ptr %5, i32 0, i32 4
  store i64 0, ptr %22, align 8, !tbaa !26
  %23 = getelementptr inbounds nuw %"struct.boost::urls::detail::url_impl", ptr %5, i32 0, i32 5
  %24 = getelementptr inbounds i8, ptr %23, i64 16
  br label %25

25:                                               ; preds = %25, %20
  %26 = phi ptr [ %23, %20 ], [ %27, %25 ]
  store i8 0, ptr %26, align 1, !tbaa !27
  %27 = getelementptr inbounds i8, ptr %26, i64 1
  %28 = icmp eq ptr %27, %24
  br i1 %28, label %29, label %25

29:                                               ; preds = %25
  %30 = getelementptr inbounds nuw %"struct.boost::urls::detail::url_impl", ptr %5, i32 0, i32 6
  store i16 0, ptr %30, align 8, !tbaa !28
  %31 = getelementptr inbounds nuw %"struct.boost::urls::detail::url_impl", ptr %5, i32 0, i32 8
  store i32 0, ptr %31, align 4, !tbaa !29
  %32 = getelementptr inbounds nuw %"struct.boost::urls::detail::url_impl", ptr %5, i32 0, i32 9
  store i16 0, ptr %32, align 8, !tbaa !30
  %33 = getelementptr inbounds nuw %"struct.boost::urls::detail::url_impl", ptr %5, i32 0, i32 10
  %34 = load i8, ptr %4, align 1, !tbaa !16
  store i8 %34, ptr %33, align 2, !tbaa !31
  ret void
}

; Function Attrs: mustprogress nounwind uwtable
define void @_ZN5boost4urls14authority_viewC2Ev(ptr noundef nonnull align 8 dereferenceable(184) %0) unnamed_addr #2 align 2 {
  %2 = alloca ptr, align 8
  store ptr %0, ptr %2, align 8, !tbaa !7
  %3 = load ptr, ptr %2, align 8
  store ptr getelementptr inbounds inrange(-16, 16) ({ [4 x ptr] }, ptr @_ZTVN5boost4urls14authority_viewE, i32 0, i32 0, i32 2), ptr %3, align 8, !tbaa !14
  %4 = getelementptr inbounds nuw %"class.boost::urls::authority_view", ptr %3, i32 0, i32 1
  call void @_ZN5boost4urls6detail8url_implC2ENS1_10parts_base4fromE(ptr noundef nonnull align 8 dereferenceable(171) %4, i8 noundef signext 2) #19
  ret void
}