; Function Attrs: mustprogress nofree norecurse nosync nounwind willreturn memory(argmem: write) uwtable
define void @_ZN5boost4urls14authority_viewC2Ev(ptr nocapture noundef nonnull writeonly align 8 dereferenceable(184) %0) unnamed_addr #8 align 2 {
  store ptr getelementptr inbounds inrange(-16, 16) (i8, ptr @_ZTVN5boost4urls14authority_viewE, i64 16), ptr %0, align 8, !tbaa !3
  %2 = getelementptr inbounds nuw i8, ptr %0, i64 8
  store ptr @.str.2, ptr %2, align 8, !tbaa !6
  %scevgep.i = getelementptr inbounds i8, ptr %0, i64 16
  %3 = getelementptr inbounds nuw i8, ptr %0, i64 172
  store i32 0, ptr %3, align 4, !tbaa !15
  %4 = getelementptr inbounds nuw i8, ptr %0, i64 176
  store i16 0, ptr %4, align 8, !tbaa !16
  %5 = getelementptr inbounds nuw i8, ptr %0, i64 178
  tail call void @llvm.memset.p0.i64(ptr noundef nonnull align 8 dereferenceable(154) %scevgep.i, i8 0, i64 154, i1 false)
  store i8 2, ptr %5, align 2, !tbaa !17
  ret void
}